; Function Attrs: mustprogress uwtable
define hidden noundef ptr @pj_wag3(ptr noundef %0) local_unnamed_addr #0 {
  %.not = icmp eq ptr %0, null
  br i1 %.not, label %23, label %2

2:                                                ; preds = %1
  %3 = tail call noalias dereferenceable_or_null(8) ptr @calloc(i64 noundef 1, i64 noundef 8) #5
  %4 = icmp eq ptr %3, null
  br i1 %4, label %5, label %7

5:                                                ; preds = %2
  %6 = tail call noundef ptr @_Z21pj_default_destructorP8PJconstsi(ptr noundef nonnull %0, i32 noundef 4096)
  br label %_Z33pj_projection_specific_setup_wag3P8PJconsts.exit

7:                                                ; preds = %2
  %8 = getelementptr inbounds nuw i8, ptr %0, i64 88
  store ptr %3, ptr %8, align 8, !tbaa !3
  %9 = load ptr, ptr %0, align 8, !tbaa !36
  %10 = getelementptr inbounds nuw i8, ptr %0, i64 24
  %11 = load ptr, ptr %10, align 8, !tbaa !37
  %12 = tail call i64 @_Z8pj_paramP6pj_ctxP8ARG_listPKc(ptr noundef %9, ptr noundef %11, ptr noundef nonnull @.str.1)
  %13 = bitcast i64 %12 to double
  %14 = tail call double @cos(double noundef %13) #6, !tbaa !38
  %15 = fmul double %13, 2.000000e+00
  %16 = fdiv double %15, 3.000000e+00
  %17 = tail call double @cos(double noundef %16) #6, !tbaa !38
  %18 = fdiv double %14, %17
  %19 = load ptr, ptr %8, align 8, !tbaa !3
  store double %18, ptr %19, align 8, !tbaa !39
  %20 = getelementptr inbounds nuw i8, ptr %0, i64 216
  store double 0.000000e+00, ptr %20, align 8, !tbaa !41
  %21 = getelementptr inbounds nuw i8, ptr %0, i64 112
  store ptr @_ZL14wag3_s_inverse5PJ_XYP8PJconsts, ptr %21, align 8, !tbaa !42
  %22 = getelementptr inbounds nuw i8, ptr %0, i64 104
  store ptr @_ZL14wag3_s_forward5PJ_LPP8PJconsts, ptr %22, align 8, !tbaa !43
  br label %_Z33pj_projection_specific_setup_wag3P8PJconsts.exit

23:                                               ; preds = %1
  %24 = tail call noundef ptr @_Z6pj_newv()
  %25 = icmp eq ptr %24, null
  br i1 %25, label %_Z33pj_projection_specific_setup_wag3P8PJconsts.exit, label %26

26:                                               ; preds = %23
  %27 = getelementptr inbounds nuw i8, ptr %24, i64 8
  store ptr @.str, ptr %27, align 8, !tbaa !44
  %28 = getelementptr inbounds nuw i8, ptr %24, i64 16
  store ptr @_ZL8des_wag3, ptr %28, align 8, !tbaa !45
  %29 = getelementptr inbounds nuw i8, ptr %24, i64 360
  store i32 1, ptr %29, align 8, !tbaa !46
  %30 = getelementptr inbounds nuw i8, ptr %24, i64 380
  store i32 4, ptr %30, align 4, !tbaa !47
  %31 = getelementptr inbounds nuw i8, ptr %24, i64 384
  store i32 1, ptr %31, align 8, !tbaa !48
  br label %_Z33pj_projection_specific_setup_wag3P8PJconsts.exit

_Z33pj_projection_specific_setup_wag3P8PJconsts.exit: ; preds = %7, %5, %23, %26
  %.0 = phi ptr [ %24, %26 ], [ null, %23 ], [ %6, %5 ], [ %0, %7 ]
  ret ptr %.0
}